; Function Attrs: mustprogress uwtable
define hidden void @_ZN8goal2sat4initER11ast_managerRK10params_refRN3sat11solver_coreER13atom2bool_varR7obj_mapI4exprNS5_7literalEEb(ptr noundef nonnull align 8 captures(none) dereferenceable(12) %0, ptr noundef nonnull align 8 dereferenceable(976) %1, ptr noundef nonnull align 8 dereferenceable(8) %2, ptr noundef nonnull align 8 dereferenceable(16) %3, ptr noundef nonnull align 8 dereferenceable(41) %4, ptr noundef nonnull align 8 dereferenceable(24) %5, i1 noundef zeroext %6) local_unnamed_addr #8 align 2 {
  %8 = load ptr, ptr %0, align 8, !tbaa !3
  %.not = icmp eq ptr %8, null
  br i1 %.not, label %9, label %.loopexit

9:                                                ; preds = %7
  %10 = tail call noalias noundef ptr @_ZN6memory8allocateEm(i64 noundef 304)
  tail call void @_ZN8goal2sat3impC2ER11ast_managerRK10params_refRN3sat11solver_coreER13atom2bool_varR7obj_mapI4exprNS6_7literalEEb(ptr noundef nonnull align 8 dereferenceable(300) %10, ptr noundef nonnull align 8 dereferenceable(976) %1, ptr noundef nonnull align 8 dereferenceable(8) %2, ptr noundef nonnull align 8 dereferenceable(16) %3, ptr noundef nonnull align 8 dereferenceable(41) %4, ptr noundef nonnull align 8 dereferenceable(24) %5, i1 noundef zeroext %6)
  store ptr %10, ptr %0, align 8, !tbaa !3
  %11 = getelementptr inbounds nuw i8, ptr %0, i64 8
  %12 = load i32, ptr %11, align 8, !tbaa !10
  %.not9 = icmp eq i32 %12, 0
  br i1 %.not9, label %.loopexit, label %.lr.ph

.lr.ph:                                           ; preds = %9, %.lr.ph
  %.08 = phi i32 [ %17, %.lr.ph ], [ 0, %9 ]
  %13 = load ptr, ptr %0, align 8, !tbaa !3
  %14 = load ptr, ptr %13, align 8, !tbaa !11
  %15 = getelementptr inbounds nuw i8, ptr %14, i64 80
  %16 = load ptr, ptr %15, align 8
  tail call void %16(ptr noundef nonnull align 8 dereferenceable(300) %13)
  %17 = add nuw i32 %.08, 1
  %18 = load i32, ptr %11, align 8, !tbaa !10
  %19 = icmp ult i32 %17, %18
  br i1 %19, label %.lr.ph, label %.loopexit, !llvm.loop !84

.loopexit:                                        ; preds = %.lr.ph, %9, %7
  ret void
}